; Function Attrs: nounwind uwtable
define dso_local i32 @pubsubPublishMessageAndPropagateToCluster(ptr noundef %0, ptr noundef %1, i32 noundef %2) local_unnamed_addr #2 {
  %4 = alloca %struct.pubsubtype, align 8
  call void @llvm.lifetime.start.p0(i64 56, ptr nonnull %4)
  %.not.i = icmp eq i32 %2, 0
  br i1 %.not.i, label %6, label %5

5:                                                ; preds = %3
  call void @llvm.memcpy.p0.p0.i64(ptr noundef nonnull align 8 dereferenceable(56) %4, ptr noundef nonnull align 8 dereferenceable(56) @pubSubShardType, i64 56, i1 false), !tbaa.struct !91
  br label %pubsubPublishMessage.exit

6:                                                ; preds = %3
  call void @llvm.memcpy.p0.p0.i64(ptr noundef nonnull align 8 dereferenceable(56) %4, ptr noundef nonnull align 8 dereferenceable(56) @pubSubType, i64 56, i1 false), !tbaa.struct !91
  br label %pubsubPublishMessage.exit

pubsubPublishMessage.exit:                        ; preds = %5, %6
  %7 = tail call i32 @pubsubPublishMessageInternal(ptr noundef %0, ptr noundef %1, ptr noundef nonnull byval(%struct.pubsubtype) align 8 %4)
  call void @llvm.lifetime.end.p0(i64 56, ptr nonnull %4)
  %8 = load i32, ptr getelementptr inbounds nuw (i8, ptr @server, i64 7888), align 8, !tbaa !68
  %.not = icmp eq i32 %8, 0
  br i1 %.not, label %10, label %9

9:                                                ; preds = %pubsubPublishMessage.exit
  tail call void @clusterPropagatePublish(ptr noundef %0, ptr noundef %1, i32 noundef %2) #9
  br label %10

10:                                               ; preds = %9, %pubsubPublishMessage.exit
  ret i32 %7
}